target datalayout = "e-m:e-p270:32:32-p271:32:32-p272:64:64-i64:64-i128:128-f80:128-n8:16:32:64-S128"
target triple = "x86_64-pc-linux-gnu"

%"struct.vcpkg::Path" = type { %"class.std::__cxx11::basic_string" }
%"class.std::__cxx11::basic_string" = type { %"struct.std::__cxx11::basic_string<char>::_Alloc_hider", i64, %union.anon }
%"struct.std::__cxx11::basic_string<char>::_Alloc_hider" = type { ptr }
%union.anon = type { i64, [8 x i8] }
%"struct.std::_Vector_base.202" = type { %"struct.std::_Vector_base<MisplacedFile, std::allocator<MisplacedFile>>::_Vector_impl" }
%"struct.std::_Vector_base<MisplacedFile, std::allocator<MisplacedFile>>::_Vector_impl" = type { %"struct.std::_Vector_base<MisplacedFile, std::allocator<MisplacedFile>>::_Vector_impl_data" }
%"struct.std::_Vector_base<MisplacedFile, std::allocator<MisplacedFile>>::_Vector_impl_data" = type { ptr, ptr, ptr }
%struct.MisplacedFile = type <{ %"struct.vcpkg::Path", i32, [4 x i8] }>

; Function Attrs: mustprogress nounwind uwtable
define linkonce_odr dso_local void @_ZN5vcpkg4PathD2Ev(ptr noundef nonnull align 8 dereferenceable(32) %0) unnamed_addr #3 comdat align 2 {
  %2 = alloca ptr, align 8
  store ptr %0, ptr %2, align 8
  %3 = load ptr, ptr %2, align 8
  %4 = getelementptr inbounds %"struct.vcpkg::Path", ptr %3, i32 0, i32 0
  call void @_ZNSt7__cxx1112basic_stringIcSt11char_traitsIcESaIcEED1Ev(ptr noundef nonnull align 8 dereferenceable(32) %4) #19
  ret void
}

; Function Attrs: mustprogress nounwind uwtable
define internal void @_ZZN5vcpkgL35check_pkgconfig_dir_only_in_lib_dirERKNS_18ReadOnlyFilesystemERKNS_4PathERNS_11MessageSinkEEN13MisplacedFileD2Ev(ptr noundef nonnull align 8 dereferenceable(36) %0) unnamed_addr #3 align 2 {
  %2 = alloca ptr, align 8
  store ptr %0, ptr %2, align 8
  %3 = load ptr, ptr %2, align 8
  %4 = getelementptr inbounds %struct.MisplacedFile, ptr %3, i32 0, i32 0
  call void @_ZN5vcpkg4PathD2Ev(ptr noundef nonnull align 8 dereferenceable(32) %4) #19
  ret void
}

; Function Attrs: mustprogress nounwind uwtable
define internal void @_ZNSt15__new_allocatorIZN5vcpkgL35check_pkgconfig_dir_only_in_lib_dirERKNS0_18ReadOnlyFilesystemERKNS0_4PathERNS0_11MessageSinkEE13MisplacedFileED2Ev(ptr noundef nonnull align 1 dereferenceable(1) %0) unnamed_addr #3 align 2 {
  %2 = alloca ptr, align 8
  store ptr %0, ptr %2, align 8
  ret void
}

; Function Attrs: mustprogress nounwind uwtable
define internal void @_ZNSt15__new_allocatorIZN5vcpkgL35check_pkgconfig_dir_only_in_lib_dirERKNS0_18ReadOnlyFilesystemERKNS0_4PathERNS0_11MessageSinkEE13MisplacedFileE10deallocateEPS9_m(ptr noundef nonnull align 1 dereferenceable(1) %0, ptr noundef %1, i64 noundef %2) #3 align 2 {
  %4 = alloca ptr, align 8
  %5 = alloca ptr, align 8
  %6 = alloca i64, align 8
  store ptr %0, ptr %4, align 8
  store ptr %1, ptr %5, align 8
  store i64 %2, ptr %6, align 8
  %7 = load ptr, ptr %5, align 8
  call void @_ZdlPv(ptr noundef %7) #24
  ret void
}

; Function Attrs: mustprogress nounwind uwtable
define internal void @_ZSt8_DestroyIZN5vcpkgL35check_pkgconfig_dir_only_in_lib_dirERKNS0_18ReadOnlyFilesystemERKNS0_4PathERNS0_11MessageSinkEE13MisplacedFileEvPT_(ptr noundef %0) #3 {
  %2 = alloca ptr, align 8
  store ptr %0, ptr %2, align 8
  %3 = load ptr, ptr %2, align 8
  call void @_ZZN5vcpkgL35check_pkgconfig_dir_only_in_lib_dirERKNS_18ReadOnlyFilesystemERKNS_4PathERNS_11MessageSinkEEN13MisplacedFileD2Ev(ptr noundef nonnull align 8 dereferenceable(36) %3) #19
  ret void
}

; Function Attrs: mustprogress nounwind uwtable
define internal void @_ZNSaIZN5vcpkgL35check_pkgconfig_dir_only_in_lib_dirERKNS_18ReadOnlyFilesystemERKNS_4PathERNS_11MessageSinkEE13MisplacedFileED2Ev(ptr noundef nonnull align 1 dereferenceable(1) %0) unnamed_addr #3 align 2 {
  %2 = alloca ptr, align 8
  store ptr %0, ptr %2, align 8
  %3 = load ptr, ptr %2, align 8
  call void @_ZNSt15__new_allocatorIZN5vcpkgL35check_pkgconfig_dir_only_in_lib_dirERKNS0_18ReadOnlyFilesystemERKNS0_4PathERNS0_11MessageSinkEE13MisplacedFileED2Ev(ptr noundef nonnull align 1 dereferenceable(1) %3) #19
  ret void
}

; Function Attrs: mustprogress uwtable
define internal void @_ZNSt16allocator_traitsISaIZN5vcpkgL35check_pkgconfig_dir_only_in_lib_dirERKNS0_18ReadOnlyFilesystemERKNS0_4PathERNS0_11MessageSinkEE13MisplacedFileEE10deallocateERSA_PS9_m(ptr noundef nonnull align 1 dereferenceable(1) %0, ptr noundef %1, i64 noundef %2) #0 align 2 {
  %4 = alloca ptr, align 8
  %5 = alloca ptr, align 8
  %6 = alloca i64, align 8
  store ptr %0, ptr %4, align 8
  store ptr %1, ptr %5, align 8
  store i64 %2, ptr %6, align 8
  %7 = load ptr, ptr %4, align 8
  %8 = load ptr, ptr %5, align 8
  %9 = load i64, ptr %6, align 8
  call void @_ZNSt15__new_allocatorIZN5vcpkgL35check_pkgconfig_dir_only_in_lib_dirERKNS0_18ReadOnlyFilesystemERKNS0_4PathERNS0_11MessageSinkEE13MisplacedFileE10deallocateEPS9_m(ptr noundef nonnull align 1 dereferenceable(1) %7, ptr noundef %8, i64 noundef %9)
  ret void
}

; Function Attrs: mustprogress uwtable
define internal void @_ZNSt12_Destroy_auxILb0EE9__destroyIPZN5vcpkgL35check_pkgconfig_dir_only_in_lib_dirERKNS2_18ReadOnlyFilesystemERKNS2_4PathERNS2_11MessageSinkEE13MisplacedFileEEvT_SD_(ptr noundef %0, ptr noundef %1) #0 align 2 {
  %3 = alloca ptr, align 8
  %4 = alloca ptr, align 8
  store ptr %0, ptr %3, align 8
  store ptr %1, ptr %4, align 8
  br label %5

5:                                                ; preds = %11, %2
  %6 = load ptr, ptr %3, align 8
  %7 = load ptr, ptr %4, align 8
  %8 = icmp ne ptr %6, %7
  br i1 %8, label %9, label %14

9:                                                ; preds = %5
  %10 = load ptr, ptr %3, align 8
  call void @_ZSt8_DestroyIZN5vcpkgL35check_pkgconfig_dir_only_in_lib_dirERKNS0_18ReadOnlyFilesystemERKNS0_4PathERNS0_11MessageSinkEE13MisplacedFileEvPT_(ptr noundef %10)
  br label %11

11:                                               ; preds = %9
  %12 = load ptr, ptr %3, align 8
  %13 = getelementptr inbounds %struct.MisplacedFile, ptr %12, i32 1
  store ptr %13, ptr %3, align 8
  br label %5, !llvm.loop !83

14:                                               ; preds = %5
  ret void
}

; Function Attrs: mustprogress nounwind uwtable
define internal void @_ZNSt12_Vector_baseIZN5vcpkgL35check_pkgconfig_dir_only_in_lib_dirERKNS0_18ReadOnlyFilesystemERKNS0_4PathERNS0_11MessageSinkEE13MisplacedFileSaIS9_EE12_Vector_implD2Ev(ptr noundef nonnull align 8 dereferenceable(24) %0) unnamed_addr #3 align 2 {
  %2 = alloca ptr, align 8
  store ptr %0, ptr %2, align 8
  %3 = load ptr, ptr %2, align 8
  call void @_ZNSaIZN5vcpkgL35check_pkgconfig_dir_only_in_lib_dirERKNS_18ReadOnlyFilesystemERKNS_4PathERNS_11MessageSinkEE13MisplacedFileED2Ev(ptr noundef nonnull align 1 dereferenceable(1) %3) #19
  ret void
}

; Function Attrs: mustprogress uwtable
define internal void @_ZNSt12_Vector_baseIZN5vcpkgL35check_pkgconfig_dir_only_in_lib_dirERKNS0_18ReadOnlyFilesystemERKNS0_4PathERNS0_11MessageSinkEE13MisplacedFileSaIS9_EE13_M_deallocateEPS9_m(ptr noundef nonnull align 8 dereferenceable(24) %0, ptr noundef %1, i64 noundef %2) #0 align 2 {
  %4 = alloca ptr, align 8
  %5 = alloca ptr, align 8
  %6 = alloca i64, align 8
  store ptr %0, ptr %4, align 8
  store ptr %1, ptr %5, align 8
  store i64 %2, ptr %6, align 8
  %7 = load ptr, ptr %4, align 8
  %8 = load ptr, ptr %5, align 8
  %9 = icmp ne ptr %8, null
  br i1 %9, label %10, label %14

10:                                               ; preds = %3
  %11 = getelementptr inbounds %"struct.std::_Vector_base.202", ptr %7, i32 0, i32 0
  %12 = load ptr, ptr %5, align 8
  %13 = load i64, ptr %6, align 8
  call void @_ZNSt16allocator_traitsISaIZN5vcpkgL35check_pkgconfig_dir_only_in_lib_dirERKNS0_18ReadOnlyFilesystemERKNS0_4PathERNS0_11MessageSinkEE13MisplacedFileEE10deallocateERSA_PS9_m(ptr noundef nonnull align 1 dereferenceable(1) %11, ptr noundef %12, i64 noundef %13)
  br label %14

14:                                               ; preds = %10, %3
  ret void
}

; Function Attrs: mustprogress uwtable
define internal void @_ZSt8_DestroyIPZN5vcpkgL35check_pkgconfig_dir_only_in_lib_dirERKNS0_18ReadOnlyFilesystemERKNS0_4PathERNS0_11MessageSinkEE13MisplacedFileEvT_SB_(ptr noundef %0, ptr noundef %1) #0 {
  %3 = alloca ptr, align 8
  %4 = alloca ptr, align 8
  store ptr %0, ptr %3, align 8
  store ptr %1, ptr %4, align 8
  %5 = load ptr, ptr %3, align 8
  %6 = load ptr, ptr %4, align 8
  call void @_ZNSt12_Destroy_auxILb0EE9__destroyIPZN5vcpkgL35check_pkgconfig_dir_only_in_lib_dirERKNS2_18ReadOnlyFilesystemERKNS2_4PathERNS2_11MessageSinkEE13MisplacedFileEEvT_SD_(ptr noundef %5, ptr noundef %6)
  ret void
}

; Function Attrs: noreturn nounwind uwtable
define linkonce_odr hidden void @__clang_call_terminate(ptr noundef %0) #6 comdat {
  %2 = call ptr @__cxa_begin_catch(ptr %0) #19
  call void @_ZSt9terminatev() #22
  unreachable
}

; Function Attrs: mustprogress nounwind uwtable
define internal void @_ZNSt12_Vector_baseIZN5vcpkgL35check_pkgconfig_dir_only_in_lib_dirERKNS0_18ReadOnlyFilesystemERKNS0_4PathERNS0_11MessageSinkEE13MisplacedFileSaIS9_EED2Ev(ptr noundef nonnull align 8 dereferenceable(24) %0) unnamed_addr #3 align 2 personality ptr @__gxx_personality_v0 {
  %2 = alloca ptr, align 8
  store ptr %0, ptr %2, align 8
  %3 = load ptr, ptr %2, align 8
  %4 = getelementptr inbounds %"struct.std::_Vector_base.202", ptr %3, i32 0, i32 0
  %5 = getelementptr inbounds %"struct.std::_Vector_base<MisplacedFile, std::allocator<MisplacedFile>>::_Vector_impl_data", ptr %4, i32 0, i32 0
  %6 = load ptr, ptr %5, align 8
  %7 = getelementptr inbounds %"struct.std::_Vector_base.202", ptr %3, i32 0, i32 0
  %8 = getelementptr inbounds %"struct.std::_Vector_base<MisplacedFile, std::allocator<MisplacedFile>>::_Vector_impl_data", ptr %7, i32 0, i32 2
  %9 = load ptr, ptr %8, align 8
  %10 = getelementptr inbounds %"struct.std::_Vector_base.202", ptr %3, i32 0, i32 0
  %11 = getelementptr inbounds %"struct.std::_Vector_base<MisplacedFile, std::allocator<MisplacedFile>>::_Vector_impl_data", ptr %10, i32 0, i32 0
  %12 = load ptr, ptr %11, align 8
  %13 = ptrtoint ptr %9 to i64
  %14 = ptrtoint ptr %12 to i64
  %15 = sub i64 %13, %14
  %16 = sdiv exact i64 %15, 40
  invoke void @_ZNSt12_Vector_baseIZN5vcpkgL35check_pkgconfig_dir_only_in_lib_dirERKNS0_18ReadOnlyFilesystemERKNS0_4PathERNS0_11MessageSinkEE13MisplacedFileSaIS9_EE13_M_deallocateEPS9_m(ptr noundef nonnull align 8 dereferenceable(24) %3, ptr noundef %6, i64 noundef %16)
          to label %17 unwind label %19

17:                                               ; preds = %1
  %18 = getelementptr inbounds %"struct.std::_Vector_base.202", ptr %3, i32 0, i32 0
  call void @_ZNSt12_Vector_baseIZN5vcpkgL35check_pkgconfig_dir_only_in_lib_dirERKNS0_18ReadOnlyFilesystemERKNS0_4PathERNS0_11MessageSinkEE13MisplacedFileSaIS9_EE12_Vector_implD2Ev(ptr noundef nonnull align 8 dereferenceable(24) %18) #19
  ret void

19:                                               ; preds = %1
  %20 = landingpad { ptr, i32 }
          catch ptr null
  %21 = extractvalue { ptr, i32 } %20, 0
  call void @__clang_call_terminate(ptr %21) #22
  unreachable
}

; Function Attrs: mustprogress uwtable
define internal void @_ZSt8_DestroyIPZN5vcpkgL35check_pkgconfig_dir_only_in_lib_dirERKNS0_18ReadOnlyFilesystemERKNS0_4PathERNS0_11MessageSinkEE13MisplacedFileS9_EvT_SB_RSaIT0_E(ptr noundef %0, ptr noundef %1, ptr noundef nonnull align 1 dereferenceable(1) %2) #0 {
  %4 = alloca ptr, align 8
  %5 = alloca ptr, align 8
  %6 = alloca ptr, align 8
  store ptr %0, ptr %4, align 8
  store ptr %1, ptr %5, align 8
  store ptr %2, ptr %6, align 8
  %7 = load ptr, ptr %4, align 8
  %8 = load ptr, ptr %5, align 8
  call void @_ZSt8_DestroyIPZN5vcpkgL35check_pkgconfig_dir_only_in_lib_dirERKNS0_18ReadOnlyFilesystemERKNS0_4PathERNS0_11MessageSinkEE13MisplacedFileEvT_SB_(ptr noundef %7, ptr noundef %8)
  ret void
}

; Function Attrs: mustprogress nounwind uwtable
define internal noundef nonnull align 1 dereferenceable(1) ptr @_ZNSt12_Vector_baseIZN5vcpkgL35check_pkgconfig_dir_only_in_lib_dirERKNS0_18ReadOnlyFilesystemERKNS0_4PathERNS0_11MessageSinkEE13MisplacedFileSaIS9_EE19_M_get_Tp_allocatorEv(ptr noundef nonnull align 8 dereferenceable(24) %0) #3 align 2 {
  %2 = alloca ptr, align 8
  store ptr %0, ptr %2, align 8
  %3 = load ptr, ptr %2, align 8
  %4 = getelementptr inbounds %"struct.std::_Vector_base.202", ptr %3, i32 0, i32 0
  ret ptr %4
}

; Function Attrs: mustprogress nounwind uwtable
define internal void @_ZNSt6vectorIZN5vcpkgL35check_pkgconfig_dir_only_in_lib_dirERKNS0_18ReadOnlyFilesystemERKNS0_4PathERNS0_11MessageSinkEE13MisplacedFileSaIS9_EED2Ev(ptr noundef nonnull align 8 dereferenceable(24) %0) unnamed_addr #3 align 2 personality ptr @__gxx_personality_v0 {
  %2 = alloca ptr, align 8
  store ptr %0, ptr %2, align 8
  %3 = load ptr, ptr %2, align 8
  %4 = getelementptr inbounds %"struct.std::_Vector_base.202", ptr %3, i32 0, i32 0
  %5 = getelementptr inbounds %"struct.std::_Vector_base<MisplacedFile, std::allocator<MisplacedFile>>::_Vector_impl_data", ptr %4, i32 0, i32 0
  %6 = load ptr, ptr %5, align 8
  %7 = getelementptr inbounds %"struct.std::_Vector_base.202", ptr %3, i32 0, i32 0
  %8 = getelementptr inbounds %"struct.std::_Vector_base<MisplacedFile, std::allocator<MisplacedFile>>::_Vector_impl_data", ptr %7, i32 0, i32 1
  %9 = load ptr, ptr %8, align 8
  %10 = call noundef nonnull align 1 dereferenceable(1) ptr @_ZNSt12_Vector_baseIZN5vcpkgL35check_pkgconfig_dir_only_in_lib_dirERKNS0_18ReadOnlyFilesystemERKNS0_4PathERNS0_11MessageSinkEE13MisplacedFileSaIS9_EE19_M_get_Tp_allocatorEv(ptr noundef nonnull align 8 dereferenceable(24) %3) #19
  invoke void @_ZSt8_DestroyIPZN5vcpkgL35check_pkgconfig_dir_only_in_lib_dirERKNS0_18ReadOnlyFilesystemERKNS0_4PathERNS0_11MessageSinkEE13MisplacedFileS9_EvT_SB_RSaIT0_E(ptr noundef %6, ptr noundef %9, ptr noundef nonnull align 1 dereferenceable(1) %10)
          to label %11 unwind label %12

11:                                               ; preds = %1
  call void @_ZNSt12_Vector_baseIZN5vcpkgL35check_pkgconfig_dir_only_in_lib_dirERKNS0_18ReadOnlyFilesystemERKNS0_4PathERNS0_11MessageSinkEE13MisplacedFileSaIS9_EED2Ev(ptr noundef nonnull align 8 dereferenceable(24) %3) #19
  ret void

12:                                               ; preds = %1
  %13 = landingpad { ptr, i32 }
          catch ptr null
  %14 = extractvalue { ptr, i32 } %13, 0
  call void @__clang_call_terminate(ptr %14) #22
  unreachable
}